target datalayout = "e-m:e-p270:32:32-p271:32:32-p272:64:64-i64:64-i128:128-f80:128-n8:16:32:64-S128"
target triple = "x86_64-unknown-linux-gnu"

%"struct.OpenImageIO_v2_6_0::TypeDesc" = type { i8, i8, i8, i8, i32 }
%"class.OpenImageIO_v2_6_0::pvt::TextureSystemImpl" = type <{ %"class.OpenImageIO_v2_6_0::TextureSystem", ptr, i8, [3 x i8], %"class.Imath_2_5::Matrix44", %"class.Imath_2_5::Matrix44", i8, i8, [2 x i8], i32, i32, %"class.boost::thread_specific_ptr", %"class.std::unique_ptr", i32, [4 x i8] }>
%"class.OpenImageIO_v2_6_0::TextureSystem" = type { ptr }
%"class.Imath_2_5::Matrix44" = type { [4 x [4 x float]] }
%"class.boost::thread_specific_ptr" = type { ptr }
%"class.std::unique_ptr" = type { %"struct.std::__uniq_ptr_data" }
%"struct.std::__uniq_ptr_data" = type { %"class.std::__uniq_ptr_impl" }
%"class.std::__uniq_ptr_impl" = type { %"class.std::tuple" }
%"class.std::tuple" = type { %"struct.std::_Tuple_impl" }
%"struct.std::_Tuple_impl" = type { %"struct.std::_Head_base.3" }
%"struct.std::_Head_base.3" = type { ptr }
%"class.std::__cxx11::basic_string" = type { %"struct.std::__cxx11::basic_string<char>::_Alloc_hider", i64, %union.anon.8 }
%"struct.std::__cxx11::basic_string<char>::_Alloc_hider" = type { ptr }
%union.anon.8 = type { i64, [8 x i8] }
%"class.OpenImageIO_v2_6_0::ustring" = type { ptr }

@.str.50 = private unnamed_addr constant [3 x i8] c"{}\00", align 1

; Function Attrs: mustprogress nounwind uwtable
define linkonce_odr void @_ZN18OpenImageIO_v2_6_07ustringD2Ev(ptr noundef nonnull align 8 dereferenceable(8) %this) unnamed_addr #1 comdat align 2 {
entry:
  %this.addr = alloca ptr, align 8
  store ptr %this, ptr %this.addr, align 8
  ret void
}

; Function Attrs: mustprogress nounwind uwtable
define linkonce_odr void @_ZN18OpenImageIO_v2_6_08TypeDescC2ERKS0_(ptr noundef nonnull align 4 dereferenceable(8) %this, ptr noundef nonnull align 4 dereferenceable(8) %t) unnamed_addr #1 comdat align 2 {
entry:
  %this.addr = alloca ptr, align 8
  %t.addr = alloca ptr, align 8
  store ptr %this, ptr %this.addr, align 8
  store ptr %t, ptr %t.addr, align 8
  %this1 = load ptr, ptr %this.addr, align 8
  %basetype = getelementptr inbounds %"struct.OpenImageIO_v2_6_0::TypeDesc", ptr %this1, i32 0, i32 0
  %0 = load ptr, ptr %t.addr, align 8
  %basetype2 = getelementptr inbounds %"struct.OpenImageIO_v2_6_0::TypeDesc", ptr %0, i32 0, i32 0
  %1 = load i8, ptr %basetype2, align 4
  store i8 %1, ptr %basetype, align 4
  %aggregate = getelementptr inbounds %"struct.OpenImageIO_v2_6_0::TypeDesc", ptr %this1, i32 0, i32 1
  %2 = load ptr, ptr %t.addr, align 8
  %aggregate3 = getelementptr inbounds %"struct.OpenImageIO_v2_6_0::TypeDesc", ptr %2, i32 0, i32 1
  %3 = load i8, ptr %aggregate3, align 1
  store i8 %3, ptr %aggregate, align 1
  %vecsemantics = getelementptr inbounds %"struct.OpenImageIO_v2_6_0::TypeDesc", ptr %this1, i32 0, i32 2
  %4 = load ptr, ptr %t.addr, align 8
  %vecsemantics4 = getelementptr inbounds %"struct.OpenImageIO_v2_6_0::TypeDesc", ptr %4, i32 0, i32 2
  %5 = load i8, ptr %vecsemantics4, align 2
  store i8 %5, ptr %vecsemantics, align 2
  %reserved = getelementptr inbounds %"struct.OpenImageIO_v2_6_0::TypeDesc", ptr %this1, i32 0, i32 3
  store i8 0, ptr %reserved, align 1
  %arraylen = getelementptr inbounds %"struct.OpenImageIO_v2_6_0::TypeDesc", ptr %this1, i32 0, i32 4
  %6 = load ptr, ptr %t.addr, align 8
  %arraylen5 = getelementptr inbounds %"struct.OpenImageIO_v2_6_0::TypeDesc", ptr %6, i32 0, i32 4
  %7 = load i32, ptr %arraylen5, align 4
  store i32 %7, ptr %arraylen, align 4
  ret void
}

; Function Attrs: mustprogress nounwind uwtable
define linkonce_odr void @_ZN18OpenImageIO_v2_6_07ustringC2ERKS0_(ptr noundef nonnull align 8 dereferenceable(8) %this, ptr noundef nonnull align 8 dereferenceable(8) %str) unnamed_addr #1 comdat align 2 {
entry:
  %this.addr = alloca ptr, align 8
  %str.addr = alloca ptr, align 8
  store ptr %this, ptr %this.addr, align 8
  store ptr %str, ptr %str.addr, align 8
  %this1 = load ptr, ptr %this.addr, align 8
  %m_chars = getelementptr inbounds %"class.OpenImageIO_v2_6_0::ustring", ptr %this1, i32 0, i32 0
  %0 = load ptr, ptr %str.addr, align 8
  %m_chars2 = getelementptr inbounds %"class.OpenImageIO_v2_6_0::ustring", ptr %0, i32 0, i32 0
  %1 = load ptr, ptr %m_chars2, align 8
  store ptr %1, ptr %m_chars, align 8
  ret void
}

; Function Attrs: mustprogress uwtable
define hidden noundef zeroext i1 @_ZN18OpenImageIO_v2_6_03pvt17TextureSystemImpl16get_texture_infoENS_7ustringEiS2_NS_8TypeDescEPv(ptr noundef nonnull align 8 dereferenceable(184) %this, ptr noundef %filename, i32 noundef %subimage, ptr noundef %dataname, ptr noundef %datatype, ptr noundef %data) unnamed_addr #7 align 2 personality ptr @__gxx_personality_v0 {
entry:
  %this.addr = alloca ptr, align 8
  %filename.indirect_addr = alloca ptr, align 8
  %subimage.addr = alloca i32, align 4
  %dataname.indirect_addr = alloca ptr, align 8
  %datatype.indirect_addr = alloca ptr, align 8
  %data.addr = alloca ptr, align 8
  %ok = alloca i8, align 1
  %agg.tmp = alloca %"class.OpenImageIO_v2_6_0::ustring", align 8
  %agg.tmp2 = alloca %"class.OpenImageIO_v2_6_0::ustring", align 8
  %agg.tmp3 = alloca %"struct.OpenImageIO_v2_6_0::TypeDesc", align 4
  %exn.slot = alloca ptr, align 8
  %ehselector.slot = alloca i32, align 4
  %err = alloca %"class.std::__cxx11::basic_string", align 8
  store ptr %this, ptr %this.addr, align 8
  store ptr %filename, ptr %filename.indirect_addr, align 8
  store i32 %subimage, ptr %subimage.addr, align 4
  store ptr %dataname, ptr %dataname.indirect_addr, align 8
  store ptr %datatype, ptr %datatype.indirect_addr, align 8
  store ptr %data, ptr %data.addr, align 8
  %this1 = load ptr, ptr %this.addr, align 8
  %m_imagecache = getelementptr inbounds %"class.OpenImageIO_v2_6_0::pvt::TextureSystemImpl", ptr %this1, i32 0, i32 1
  %0 = load ptr, ptr %m_imagecache, align 8
  call void @_ZN18OpenImageIO_v2_6_07ustringC2ERKS0_(ptr noundef nonnull align 8 dereferenceable(8) %agg.tmp, ptr noundef nonnull align 8 dereferenceable(8) %filename) #5
  %1 = load i32, ptr %subimage.addr, align 4
  call void @_ZN18OpenImageIO_v2_6_07ustringC2ERKS0_(ptr noundef nonnull align 8 dereferenceable(8) %agg.tmp2, ptr noundef nonnull align 8 dereferenceable(8) %dataname) #5
  call void @_ZN18OpenImageIO_v2_6_08TypeDescC2ERKS0_(ptr noundef nonnull align 4 dereferenceable(8) %agg.tmp3, ptr noundef nonnull align 4 dereferenceable(8) %datatype) #5
  %2 = load ptr, ptr %data.addr, align 8
  %call = invoke noundef zeroext i1 @_ZN18OpenImageIO_v2_6_03pvt14ImageCacheImpl14get_image_infoENS_7ustringEiiS2_NS_8TypeDescEPv(ptr noundef nonnull align 64 dereferenceable(25280) %0, ptr noundef %agg.tmp, i32 noundef %1, i32 noundef 0, ptr noundef %agg.tmp2, ptr noundef %agg.tmp3, ptr noundef %2)
          to label %invoke.cont unwind label %lpad

invoke.cont:                                      ; preds = %entry
  call void @_ZN18OpenImageIO_v2_6_07ustringD2Ev(ptr noundef nonnull align 8 dereferenceable(8) %agg.tmp2) #5
  call void @_ZN18OpenImageIO_v2_6_07ustringD2Ev(ptr noundef nonnull align 8 dereferenceable(8) %agg.tmp) #5
  %frombool = zext i1 %call to i8
  store i8 %frombool, ptr %ok, align 1
  %3 = load i8, ptr %ok, align 1
  %tobool = trunc i8 %3 to i1
  br i1 %tobool, label %if.end9, label %if.then

if.then:                                          ; preds = %invoke.cont
  %m_imagecache4 = getelementptr inbounds %"class.OpenImageIO_v2_6_0::pvt::TextureSystemImpl", ptr %this1, i32 0, i32 1
  %4 = load ptr, ptr %m_imagecache4, align 8
  call void @_ZNK18OpenImageIO_v2_6_03pvt14ImageCacheImpl8geterrorB5cxx11Eb(ptr sret(%"class.std::__cxx11::basic_string") align 8 %err, ptr noundef nonnull align 64 dereferenceable(25280) %4, i1 noundef zeroext true)
  %call5 = call noundef zeroext i1 @_ZNKSt7__cxx1112basic_stringIcSt11char_traitsIcESaIcEE5emptyEv(ptr noundef nonnull align 8 dereferenceable(32) %err) #5
  br i1 %call5, label %if.end, label %if.then6

if.then6:                                         ; preds = %if.then
  invoke void @_ZNK18OpenImageIO_v2_6_03pvt17TextureSystemImpl5errorIJNSt7__cxx1112basic_stringIcSt11char_traitsIcESaIcEEEEEEvPKcDpRKT_(ptr noundef nonnull align 8 dereferenceable(184) %this1, ptr noundef @.str.50, ptr noundef nonnull align 8 dereferenceable(32) %err)
          to label %invoke.cont8 unwind label %lpad7

invoke.cont8:                                     ; preds = %if.then6
  br label %if.end

lpad:                                             ; preds = %entry
  %5 = landingpad { ptr, i32 }
          cleanup
  %6 = extractvalue { ptr, i32 } %5, 0
  store ptr %6, ptr %exn.slot, align 8
  %7 = extractvalue { ptr, i32 } %5, 1
  store i32 %7, ptr %ehselector.slot, align 4
  call void @_ZN18OpenImageIO_v2_6_07ustringD2Ev(ptr noundef nonnull align 8 dereferenceable(8) %agg.tmp2) #5
  call void @_ZN18OpenImageIO_v2_6_07ustringD2Ev(ptr noundef nonnull align 8 dereferenceable(8) %agg.tmp) #5
  br label %eh.resume

lpad7:                                            ; preds = %if.then6
  %8 = landingpad { ptr, i32 }
          cleanup
  %9 = extractvalue { ptr, i32 } %8, 0
  store ptr %9, ptr %exn.slot, align 8
  %10 = extractvalue { ptr, i32 } %8, 1
  store i32 %10, ptr %ehselector.slot, align 4
  call void @_ZNSt7__cxx1112basic_stringIcSt11char_traitsIcESaIcEED1Ev(ptr noundef nonnull align 8 dereferenceable(32) %err) #5
  br label %eh.resume

if.end:                                           ; preds = %invoke.cont8, %if.then
  call void @_ZNSt7__cxx1112basic_stringIcSt11char_traitsIcESaIcEED1Ev(ptr noundef nonnull align 8 dereferenceable(32) %err) #5
  br label %if.end9

if.end9:                                          ; preds = %if.end, %invoke.cont
  %11 = load i8, ptr %ok, align 1
  %tobool10 = trunc i8 %11 to i1
  ret i1 %tobool10

eh.resume:                                        ; preds = %lpad7, %lpad
  %exn = load ptr, ptr %exn.slot, align 8
  %sel = load i32, ptr %ehselector.slot, align 4
  %lpad.val = insertvalue { ptr, i32 } poison, ptr %exn, 0
  %lpad.val11 = insertvalue { ptr, i32 } %lpad.val, i32 %sel, 1
  resume { ptr, i32 } %lpad.val11
}