; Function Attrs: mustprogress uwtable
define hidden noundef zeroext i1 @_ZN18OpenImageIO_v2_6_03pvt17TextureSystemImpl16get_texture_infoENS_7ustringEiS2_NS_8TypeDescEPv(ptr noundef nonnull align 8 dereferenceable(184) %this, ptr nocapture noundef readonly %filename, i32 noundef %subimage, ptr nocapture noundef readonly %dataname, ptr nocapture noundef readonly %datatype, ptr noundef %data) unnamed_addr #5 align 2 personality ptr @__gxx_personality_v0 {
entry:
  %agg.tmp = alloca %"class.OpenImageIO_v2_6_0::ustring", align 8
  %agg.tmp2 = alloca %"class.OpenImageIO_v2_6_0::ustring", align 8
  %agg.tmp3 = alloca %"struct.OpenImageIO_v2_6_0::TypeDesc", align 4
  %err = alloca %"class.std::__cxx11::basic_string", align 8
  %m_imagecache = getelementptr inbounds i8, ptr %this, i64 8
  %0 = load ptr, ptr %m_imagecache, align 8
  %1 = load ptr, ptr %filename, align 8
  store ptr %1, ptr %agg.tmp, align 8
  %2 = load ptr, ptr %dataname, align 8
  store ptr %2, ptr %agg.tmp2, align 8
  %3 = load i8, ptr %datatype, align 4
  store i8 %3, ptr %agg.tmp3, align 4
  %aggregate.i = getelementptr inbounds i8, ptr %agg.tmp3, i64 1
  %aggregate3.i = getelementptr inbounds i8, ptr %datatype, i64 1
  %4 = load i8, ptr %aggregate3.i, align 1
  store i8 %4, ptr %aggregate.i, align 1
  %vecsemantics.i = getelementptr inbounds i8, ptr %agg.tmp3, i64 2
  %vecsemantics4.i = getelementptr inbounds i8, ptr %datatype, i64 2
  %5 = load i8, ptr %vecsemantics4.i, align 2
  store i8 %5, ptr %vecsemantics.i, align 2
  %reserved.i = getelementptr inbounds i8, ptr %agg.tmp3, i64 3
  store i8 0, ptr %reserved.i, align 1
  %arraylen.i = getelementptr inbounds i8, ptr %agg.tmp3, i64 4
  %arraylen5.i = getelementptr inbounds i8, ptr %datatype, i64 4
  %6 = load i32, ptr %arraylen5.i, align 4
  store i32 %6, ptr %arraylen.i, align 4
  %call = call noundef zeroext i1 @_ZN18OpenImageIO_v2_6_03pvt14ImageCacheImpl14get_image_infoENS_7ustringEiiS2_NS_8TypeDescEPv(ptr noundef nonnull align 64 dereferenceable(25280) %0, ptr noundef nonnull %agg.tmp, i32 noundef %subimage, i32 noundef 0, ptr noundef nonnull %agg.tmp2, ptr noundef nonnull %agg.tmp3, ptr noundef %data)
  br i1 %call, label %if.end9, label %if.then

if.then:                                          ; preds = %entry
  %7 = load ptr, ptr %m_imagecache, align 8
  call void @_ZNK18OpenImageIO_v2_6_03pvt14ImageCacheImpl8geterrorB5cxx11Eb(ptr nonnull sret(%"class.std::__cxx11::basic_string") align 8 %err, ptr noundef nonnull align 64 dereferenceable(25280) %7, i1 noundef zeroext true)
  %call5 = call noundef zeroext i1 @_ZNKSt7__cxx1112basic_stringIcSt11char_traitsIcESaIcEE5emptyEv(ptr noundef nonnull align 8 dereferenceable(32) %err) #30
  br i1 %call5, label %if.end, label %if.then6

if.then6:                                         ; preds = %if.then
  invoke void @_ZNK18OpenImageIO_v2_6_03pvt17TextureSystemImpl5errorIJNSt7__cxx1112basic_stringIcSt11char_traitsIcESaIcEEEEEEvPKcDpRKT_(ptr noundef nonnull align 8 dereferenceable(184) %this, ptr noundef nonnull @.str.50, ptr noundef nonnull align 8 dereferenceable(32) %err)
          to label %if.end unwind label %lpad7

lpad7:                                            ; preds = %if.then6
  %8 = landingpad { ptr, i32 }
          cleanup
  call void @_ZNSt7__cxx1112basic_stringIcSt11char_traitsIcESaIcEED1Ev(ptr noundef nonnull align 8 dereferenceable(32) %err) #30
  resume { ptr, i32 } %8

if.end:                                           ; preds = %if.then6, %if.then
  call void @_ZNSt7__cxx1112basic_stringIcSt11char_traitsIcESaIcEED1Ev(ptr noundef nonnull align 8 dereferenceable(32) %err) #30
  br label %if.end9

if.end9:                                          ; preds = %if.end, %entry
  ret i1 %call
}